target datalayout = "e-m:e-p270:32:32-p271:32:32-p272:64:64-i64:64-i128:128-f80:128-n8:16:32:64-S128"
target triple = "x86_64-unknown-linux-gnu"

%struct.DMAAIOCB = type { %struct.BlockAIOCB, ptr, ptr, ptr, i32, i64, i32, i32, i64, %struct.QEMUIOVector, ptr, ptr, ptr }
%struct.BlockAIOCB = type { ptr, ptr, ptr, ptr, i32 }
%struct.QEMUIOVector = type { ptr, i32, %union.anon }
%union.anon = type { %struct.anon }
%struct.anon = type { i32, %struct.iovec }
%struct.iovec = type { ptr, i64 }
%struct.timeval = type { i64, i64 }

@.str = private unnamed_addr constant [23 x i8] c"!(dbs->acb && dbs->bh)\00", align 1
@.str.1 = private unnamed_addr constant [29 x i8] c"../qemu/system/dma-helpers.c\00", align 1
@__PRETTY_FUNCTION__.dma_aio_cancel = private unnamed_addr constant [34 x i8] c"void dma_aio_cancel(BlockAIOCB *)\00", align 1
@trace_events_enabled_count = external global i32, align 4
@_TRACE_DMA_AIO_CANCEL_DSTATE = external global i16, align 2
@message_with_timestamp = external global i8, align 1
@.str.2 = private unnamed_addr constant [36 x i8] c"%d@%zu.%06zu:dma_aio_cancel dbs=%p\0A\00", align 1
@.str.3 = private unnamed_addr constant [23 x i8] c"dma_aio_cancel dbs=%p\0A\00", align 1
@qemu_loglevel = external global i32, align 4

; Function Attrs: nounwind sspstrong uwtable
define internal zeroext i1 @qemu_loglevel_mask(i32 noundef %mask) #0 {
entry:
  %mask.addr = alloca i32, align 4
  store i32 %mask, ptr %mask.addr, align 4
  %0 = load i32, ptr @qemu_loglevel, align 4
  %1 = load i32, ptr %mask.addr, align 4
  %and = and i32 %0, %1
  %cmp = icmp ne i32 %and, 0
  ret i1 %cmp
}

; Function Attrs: nounwind sspstrong uwtable
define internal void @_nocheck__trace_dma_aio_cancel(ptr noundef %dbs) #0 {
entry:
  %dbs.addr = alloca ptr, align 8
  %_now = alloca %struct.timeval, align 8
  store ptr %dbs, ptr %dbs.addr, align 8
  %0 = load i32, ptr @trace_events_enabled_count, align 4
  %tobool = icmp ne i32 %0, 0
  %lnot = xor i1 %tobool, true
  %lnot1 = xor i1 %lnot, true
  %lnot.ext = zext i1 %lnot1 to i32
  %conv = sext i32 %lnot.ext to i64
  %tobool2 = icmp ne i64 %conv, 0
  br i1 %tobool2, label %land.lhs.true, label %if.end11

land.lhs.true:                                    ; preds = %entry
  %1 = load i16, ptr @_TRACE_DMA_AIO_CANCEL_DSTATE, align 2
  %conv3 = zext i16 %1 to i32
  %tobool4 = icmp ne i32 %conv3, 0
  br i1 %tobool4, label %land.lhs.true5, label %if.end11

land.lhs.true5:                                   ; preds = %land.lhs.true
  %call = call zeroext i1 @qemu_loglevel_mask(i32 noundef 32768)
  br i1 %call, label %if.then, label %if.end11

if.then:                                          ; preds = %land.lhs.true5
  %2 = load i8, ptr @message_with_timestamp, align 1
  %tobool7 = trunc i8 %2 to i1
  br i1 %tobool7, label %if.then8, label %if.else

if.then8:                                         ; preds = %if.then
  %call9 = call i32 @gettimeofday(ptr noundef %_now, ptr noundef null) #8
  %call10 = call i32 @qemu_get_thread_id()
  %tv_sec = getelementptr inbounds %struct.timeval, ptr %_now, i32 0, i32 0
  %3 = load i64, ptr %tv_sec, align 8
  %tv_usec = getelementptr inbounds %struct.timeval, ptr %_now, i32 0, i32 1
  %4 = load i64, ptr %tv_usec, align 8
  %5 = load ptr, ptr %dbs.addr, align 8
  call void (ptr, ...) @qemu_log(ptr noundef @.str.2, i32 noundef %call10, i64 noundef %3, i64 noundef %4, ptr noundef %5)
  br label %if.end

if.else:                                          ; preds = %if.then
  %6 = load ptr, ptr %dbs.addr, align 8
  call void (ptr, ...) @qemu_log(ptr noundef @.str.3, ptr noundef %6)
  br label %if.end

if.end:                                           ; preds = %if.else, %if.then8
  br label %if.end11

if.end11:                                         ; preds = %if.end, %land.lhs.true5, %land.lhs.true, %entry
  ret void
}

; Function Attrs: nounwind sspstrong uwtable
define internal void @trace_dma_aio_cancel(ptr noundef %dbs) #0 {
entry:
  %dbs.addr = alloca ptr, align 8
  store ptr %dbs, ptr %dbs.addr, align 8
  %0 = load ptr, ptr %dbs.addr, align 8
  call void @_nocheck__trace_dma_aio_cancel(ptr noundef %0)
  ret void
}

; Function Attrs: nounwind sspstrong uwtable
define internal void @dma_aio_cancel(ptr noundef %acb) #0 {
entry:
  %acb.addr = alloca ptr, align 8
  %dbs = alloca ptr, align 8
  %__mptr = alloca ptr, align 8
  %tmp = alloca ptr, align 8
  store ptr %acb, ptr %acb.addr, align 8
  %0 = load ptr, ptr %acb.addr, align 8
  store ptr %0, ptr %__mptr, align 8
  %1 = load ptr, ptr %__mptr, align 8
  %add.ptr = getelementptr i8, ptr %1, i64 0
  store ptr %add.ptr, ptr %tmp, align 8
  %2 = load ptr, ptr %tmp, align 8
  store ptr %2, ptr %dbs, align 8
  %3 = load ptr, ptr %dbs, align 8
  call void @trace_dma_aio_cancel(ptr noundef %3)
  %4 = load ptr, ptr %dbs, align 8
  %acb1 = getelementptr inbounds %struct.DMAAIOCB, ptr %4, i32 0, i32 2
  %5 = load ptr, ptr %acb1, align 8
  %tobool = icmp ne ptr %5, null
  br i1 %tobool, label %land.lhs.true, label %if.then

land.lhs.true:                                    ; preds = %entry
  %6 = load ptr, ptr %dbs, align 8
  %bh = getelementptr inbounds %struct.DMAAIOCB, ptr %6, i32 0, i32 10
  %7 = load ptr, ptr %bh, align 8
  %tobool2 = icmp ne ptr %7, null
  br i1 %tobool2, label %if.else, label %if.then

if.then:                                          ; preds = %land.lhs.true, %entry
  br label %if.end

if.else:                                          ; preds = %land.lhs.true
  call void @__assert_fail(ptr noundef @.str, ptr noundef @.str.1, i32 noundef 192, ptr noundef @__PRETTY_FUNCTION__.dma_aio_cancel) #10
  unreachable

if.end:                                           ; preds = %if.then
  %8 = load ptr, ptr %dbs, align 8
  %acb3 = getelementptr inbounds %struct.DMAAIOCB, ptr %8, i32 0, i32 2
  %9 = load ptr, ptr %acb3, align 8
  %tobool4 = icmp ne ptr %9, null
  br i1 %tobool4, label %if.then5, label %if.end7

if.then5:                                         ; preds = %if.end
  %10 = load ptr, ptr %dbs, align 8
  %acb6 = getelementptr inbounds %struct.DMAAIOCB, ptr %10, i32 0, i32 2
  %11 = load ptr, ptr %acb6, align 8
  call void @blk_aio_cancel_async(ptr noundef %11)
  br label %if.end20

if.end7:                                          ; preds = %if.end
  %12 = load ptr, ptr %dbs, align 8
  %bh8 = getelementptr inbounds %struct.DMAAIOCB, ptr %12, i32 0, i32 10
  %13 = load ptr, ptr %bh8, align 8
  %tobool9 = icmp ne ptr %13, null
  br i1 %tobool9, label %if.then10, label %if.end14

if.then10:                                        ; preds = %if.end7
  %14 = load ptr, ptr %dbs, align 8
  %bh11 = getelementptr inbounds %struct.DMAAIOCB, ptr %14, i32 0, i32 10
  %15 = load ptr, ptr %bh11, align 8
  call void @cpu_unregister_map_client(ptr noundef %15)
  %16 = load ptr, ptr %dbs, align 8
  %bh12 = getelementptr inbounds %struct.DMAAIOCB, ptr %16, i32 0, i32 10
  %17 = load ptr, ptr %bh12, align 8
  call void @qemu_bh_delete(ptr noundef %17)
  %18 = load ptr, ptr %dbs, align 8
  %bh13 = getelementptr inbounds %struct.DMAAIOCB, ptr %18, i32 0, i32 10
  store ptr null, ptr %bh13, align 8
  br label %if.end14

if.end14:                                         ; preds = %if.then10, %if.end7
  %19 = load ptr, ptr %dbs, align 8
  %common = getelementptr inbounds %struct.DMAAIOCB, ptr %19, i32 0, i32 0
  %cb = getelementptr inbounds %struct.BlockAIOCB, ptr %common, i32 0, i32 2
  %20 = load ptr, ptr %cb, align 8
  %tobool15 = icmp ne ptr %20, null
  br i1 %tobool15, label %if.then16, label %if.end20

if.then16:                                        ; preds = %if.end14
  %21 = load ptr, ptr %dbs, align 8
  %common17 = getelementptr inbounds %struct.DMAAIOCB, ptr %21, i32 0, i32 0
  %cb18 = getelementptr inbounds %struct.BlockAIOCB, ptr %common17, i32 0, i32 2
  %22 = load ptr, ptr %cb18, align 8
  %23 = load ptr, ptr %dbs, align 8
  %common19 = getelementptr inbounds %struct.DMAAIOCB, ptr %23, i32 0, i32 0
  %opaque = getelementptr inbounds %struct.BlockAIOCB, ptr %common19, i32 0, i32 3
  %24 = load ptr, ptr %opaque, align 8
  call void %22(ptr noundef %24, i32 noundef -125)
  br label %if.end20

if.end20:                                         ; preds = %if.then16, %if.end14, %if.then5
  ret void
}