; Function Attrs: nounwind sspstrong uwtable
define internal void @dma_aio_cancel(ptr noundef %acb) #0 {
entry:
  %_now.i.i = alloca %struct.timeval, align 8
  call void @llvm.lifetime.start.p0(i64 16, ptr nonnull %_now.i.i)
  %0 = load i32, ptr @trace_events_enabled_count, align 4
  %tobool.i.i = icmp ne i32 %0, 0
  %1 = load i16, ptr @_TRACE_DMA_AIO_CANCEL_DSTATE, align 2
  %tobool4.i.i = icmp ne i16 %1, 0
  %or.cond.i.i = select i1 %tobool.i.i, i1 %tobool4.i.i, i1 false
  br i1 %or.cond.i.i, label %land.lhs.true5.i.i, label %trace_dma_aio_cancel.exit

land.lhs.true5.i.i:                               ; preds = %entry
  %2 = load i32, ptr @qemu_loglevel, align 4
  %and.i.i.i = and i32 %2, 32768
  %cmp.i.not.i.i = icmp eq i32 %and.i.i.i, 0
  br i1 %cmp.i.not.i.i, label %trace_dma_aio_cancel.exit, label %if.then.i.i

if.then.i.i:                                      ; preds = %land.lhs.true5.i.i
  %3 = load i8, ptr @message_with_timestamp, align 1
  %tobool7.i.i = trunc i8 %3 to i1
  br i1 %tobool7.i.i, label %if.then8.i.i, label %if.else.i.i

if.then8.i.i:                                     ; preds = %if.then.i.i
  %call9.i.i = call i32 @gettimeofday(ptr noundef nonnull %_now.i.i, ptr noundef null) #10
  %call10.i.i = tail call i32 @qemu_get_thread_id() #10
  %4 = load i64, ptr %_now.i.i, align 8
  %tv_usec.i.i = getelementptr inbounds nuw i8, ptr %_now.i.i, i64 8
  %5 = load i64, ptr %tv_usec.i.i, align 8
  tail call void (ptr, ...) @qemu_log(ptr noundef nonnull @.str.2, i32 noundef %call10.i.i, i64 noundef %4, i64 noundef %5, ptr noundef %acb) #10
  br label %trace_dma_aio_cancel.exit

if.else.i.i:                                      ; preds = %if.then.i.i
  tail call void (ptr, ...) @qemu_log(ptr noundef nonnull @.str.3, ptr noundef %acb) #10
  br label %trace_dma_aio_cancel.exit

trace_dma_aio_cancel.exit:                        ; preds = %entry, %land.lhs.true5.i.i, %if.then8.i.i, %if.else.i.i
  call void @llvm.lifetime.end.p0(i64 16, ptr nonnull %_now.i.i)
  %acb1 = getelementptr inbounds nuw i8, ptr %acb, i64 48
  %6 = load ptr, ptr %acb1, align 8
  %tobool.not = icmp eq ptr %6, null
  %bh8 = getelementptr inbounds nuw i8, ptr %acb, i64 136
  %7 = load ptr, ptr %bh8, align 8
  %tobool9.not = icmp eq ptr %7, null
  br i1 %tobool.not, label %if.end7, label %land.lhs.true

land.lhs.true:                                    ; preds = %trace_dma_aio_cancel.exit
  br i1 %tobool9.not, label %if.then5, label %if.else

if.else:                                          ; preds = %land.lhs.true
  tail call void @__assert_fail(ptr noundef nonnull @.str, ptr noundef nonnull @.str.1, i32 noundef 192, ptr noundef nonnull @__PRETTY_FUNCTION__.dma_aio_cancel) #12
  unreachable

if.then5:                                         ; preds = %land.lhs.true
  tail call void @blk_aio_cancel_async(ptr noundef nonnull %6) #10
  br label %if.end20

if.end7:                                          ; preds = %trace_dma_aio_cancel.exit
  br i1 %tobool9.not, label %if.end14, label %if.then10

if.then10:                                        ; preds = %if.end7
  tail call void @cpu_unregister_map_client(ptr noundef nonnull %7) #10
  %8 = load ptr, ptr %bh8, align 8
  tail call void @qemu_bh_delete(ptr noundef %8) #10
  store ptr null, ptr %bh8, align 8
  br label %if.end14

if.end14:                                         ; preds = %if.then10, %if.end7
  %cb = getelementptr inbounds nuw i8, ptr %acb, i64 16
  %9 = load ptr, ptr %cb, align 8
  %tobool15.not = icmp eq ptr %9, null
  br i1 %tobool15.not, label %if.end20, label %if.then16

if.then16:                                        ; preds = %if.end14
  %opaque = getelementptr inbounds nuw i8, ptr %acb, i64 24
  %10 = load ptr, ptr %opaque, align 8
  tail call void %9(ptr noundef %10, i32 noundef -125) #10
  br label %if.end20

if.end20:                                         ; preds = %if.then16, %if.end14, %if.then5
  ret void
}